target datalayout = "e-m:e-p270:32:32-p271:32:32-p272:64:64-i64:64-i128:128-f80:128-n8:16:32:64-S128"
target triple = "x86_64-pc-linux-gnu"

%struct.dirent = type { i64, i64, i16, i8, [256 x i8] }

@.str.2 = private unnamed_addr constant [12 x i8] c"snapbuild.c\00", align 1
@.str.21 = private unnamed_addr constant [21 x i8] c"pg_logical/snapshots\00", align 1
@.str.26 = private unnamed_addr constant [2 x i8] c".\00", align 1
@.str.27 = private unnamed_addr constant [3 x i8] c"..\00", align 1
@.str.28 = private unnamed_addr constant [6 x i8] c"%s/%s\00", align 1
@.str.29 = private unnamed_addr constant [32 x i8] c"only regular files expected: %s\00", align 1
@__func__.CheckPointSnapBuild = private unnamed_addr constant [20 x i8] c"CheckPointSnapBuild\00", align 1
@.str.30 = private unnamed_addr constant [11 x i8] c"%X-%X.snap\00", align 1
@.str.31 = private unnamed_addr constant [31 x i8] c"could not parse file name \22%s\22\00", align 1
@.str.32 = private unnamed_addr constant [31 x i8] c"removing snapbuild snapshot %s\00", align 1
@.str.33 = private unnamed_addr constant [31 x i8] c"could not remove file \22%s\22: %m\00", align 1

; Function Attrs: nounwind uwtable
define dso_local void @CheckPointSnapBuild() #0 {
  %1 = alloca i64, align 8
  %2 = alloca i64, align 8
  %3 = alloca ptr, align 8
  %4 = alloca ptr, align 8
  %5 = alloca [1045 x i8], align 16
  %6 = alloca i32, align 4
  %7 = alloca i32, align 4
  %8 = alloca i64, align 8
  %9 = alloca i32, align 4
  %10 = alloca i32, align 4
  call void @llvm.lifetime.start.p0(i64 8, ptr %1) #9
  call void @llvm.lifetime.start.p0(i64 8, ptr %2) #9
  call void @llvm.lifetime.start.p0(i64 8, ptr %3) #9
  call void @llvm.lifetime.start.p0(i64 8, ptr %4) #9
  call void @llvm.lifetime.start.p0(i64 1045, ptr %5) #9
  %11 = call i64 @GetRedoRecPtr()
  store i64 %11, ptr %2, align 8
  %12 = call i64 @ReplicationSlotsComputeLogicalRestartLSN()
  store i64 %12, ptr %1, align 8
  %13 = load i64, ptr %2, align 8
  %14 = load i64, ptr %1, align 8
  %15 = icmp ult i64 %13, %14
  br i1 %15, label %16, label %18

16:                                               ; preds = %0
  %17 = load i64, ptr %2, align 8
  store i64 %17, ptr %1, align 8
  br label %18

18:                                               ; preds = %16, %0
  %19 = call ptr @AllocateDir(ptr noundef @.str.21)
  store ptr %19, ptr %3, align 8
  br label %20

20:                                               ; preds = %126, %124, %18
  %21 = load ptr, ptr %3, align 8
  %22 = call ptr @ReadDir(ptr noundef %21, ptr noundef @.str.21)
  store ptr %22, ptr %4, align 8
  %23 = icmp ne ptr %22, null
  br i1 %23, label %24, label %127

24:                                               ; preds = %20
  call void @llvm.lifetime.start.p0(i64 4, ptr %6) #9
  call void @llvm.lifetime.start.p0(i64 4, ptr %7) #9
  call void @llvm.lifetime.start.p0(i64 8, ptr %8) #9
  call void @llvm.lifetime.start.p0(i64 4, ptr %9) #9
  %25 = load ptr, ptr %4, align 8
  %26 = getelementptr inbounds nuw %struct.dirent, ptr %25, i32 0, i32 4
  %27 = getelementptr inbounds [256 x i8], ptr %26, i64 0, i64 0
  %28 = call i32 @strcmp(ptr noundef %27, ptr noundef @.str.26) #12
  %29 = icmp eq i32 %28, 0
  br i1 %29, label %36, label %30

30:                                               ; preds = %24
  %31 = load ptr, ptr %4, align 8
  %32 = getelementptr inbounds nuw %struct.dirent, ptr %31, i32 0, i32 4
  %33 = getelementptr inbounds [256 x i8], ptr %32, i64 0, i64 0
  %34 = call i32 @strcmp(ptr noundef %33, ptr noundef @.str.27) #12
  %35 = icmp eq i32 %34, 0
  br i1 %35, label %36, label %37

36:                                               ; preds = %30, %24
  store i32 2, ptr %10, align 4
  br label %124, !llvm.loop !13

37:                                               ; preds = %30
  %38 = getelementptr inbounds [1045 x i8], ptr %5, i64 0, i64 0
  %39 = load ptr, ptr %4, align 8
  %40 = getelementptr inbounds nuw %struct.dirent, ptr %39, i32 0, i32 4
  %41 = getelementptr inbounds [256 x i8], ptr %40, i64 0, i64 0
  %42 = call i32 (ptr, i64, ptr, ...) @pg_snprintf(ptr noundef %38, i64 noundef 1045, ptr noundef @.str.28, ptr noundef @.str.21, ptr noundef %41)
  %43 = getelementptr inbounds [1045 x i8], ptr %5, i64 0, i64 0
  %44 = load ptr, ptr %4, align 8
  %45 = call i32 @get_dirent_type(ptr noundef %43, ptr noundef %44, i1 noundef zeroext false, i32 noundef 14)
  store i32 %45, ptr %9, align 4
  %46 = load i32, ptr %9, align 4
  %47 = icmp ne i32 %46, 0
  br i1 %47, label %48, label %63

48:                                               ; preds = %37
  %49 = load i32, ptr %9, align 4
  %50 = icmp ne i32 %49, 2
  br i1 %50, label %51, label %63

51:                                               ; preds = %48
  br label %52

52:                                               ; preds = %51
  br i1 false, label %53, label %55

53:                                               ; preds = %52
  %54 = call zeroext i1 @errstart_cold(i32 noundef 14, ptr noundef null) #10
  br i1 %54, label %57, label %60

55:                                               ; preds = %52
  %56 = call zeroext i1 @errstart(i32 noundef 14, ptr noundef null)
  br i1 %56, label %57, label %60

57:                                               ; preds = %55, %53
  %58 = getelementptr inbounds [1045 x i8], ptr %5, i64 0, i64 0
  %59 = call i32 (ptr, ...) @errmsg_internal(ptr noundef @.str.29, ptr noundef %58)
  call void @errfinish(ptr noundef @.str.2, i32 noundef 1961, ptr noundef @__func__.CheckPointSnapBuild)
  br label %60

60:                                               ; preds = %57, %55, %53
  br label %61

61:                                               ; preds = %60
  br label %62

62:                                               ; preds = %61
  store i32 2, ptr %10, align 4
  br label %124, !llvm.loop !13

63:                                               ; preds = %48, %37
  %64 = load ptr, ptr %4, align 8
  %65 = getelementptr inbounds nuw %struct.dirent, ptr %64, i32 0, i32 4
  %66 = getelementptr inbounds [256 x i8], ptr %65, i64 0, i64 0
  %67 = call i32 (ptr, ptr, ...) @__isoc99_sscanf(ptr noundef %66, ptr noundef @.str.30, ptr noundef %6, ptr noundef %7) #9
  %68 = icmp ne i32 %67, 2
  br i1 %68, label %69, label %81

69:                                               ; preds = %63
  br label %70

70:                                               ; preds = %69
  br i1 false, label %71, label %73

71:                                               ; preds = %70
  %72 = call zeroext i1 @errstart_cold(i32 noundef 15, ptr noundef null) #10
  br i1 %72, label %75, label %78

73:                                               ; preds = %70
  %74 = call zeroext i1 @errstart(i32 noundef 15, ptr noundef null)
  br i1 %74, label %75, label %78

75:                                               ; preds = %73, %71
  %76 = getelementptr inbounds [1045 x i8], ptr %5, i64 0, i64 0
  %77 = call i32 (ptr, ...) @errmsg(ptr noundef @.str.31, ptr noundef %76)
  call void @errfinish(ptr noundef @.str.2, i32 noundef 1977, ptr noundef @__func__.CheckPointSnapBuild)
  br label %78

78:                                               ; preds = %75, %73, %71
  br label %79

79:                                               ; preds = %78
  br label %80

80:                                               ; preds = %79
  store i32 2, ptr %10, align 4
  br label %124, !llvm.loop !13

81:                                               ; preds = %63
  %82 = load i32, ptr %6, align 4
  %83 = zext i32 %82 to i64
  %84 = shl i64 %83, 32
  %85 = load i32, ptr %7, align 4
  %86 = zext i32 %85 to i64
  %87 = or i64 %84, %86
  store i64 %87, ptr %8, align 8
  %88 = load i64, ptr %8, align 8
  %89 = load i64, ptr %1, align 8
  %90 = icmp ult i64 %88, %89
  br i1 %90, label %94, label %91

91:                                               ; preds = %81
  %92 = load i64, ptr %1, align 8
  %93 = icmp eq i64 %92, 0
  br i1 %93, label %94, label %123

94:                                               ; preds = %91, %81
  br label %95

95:                                               ; preds = %94
  br i1 false, label %96, label %98

96:                                               ; preds = %95
  %97 = call zeroext i1 @errstart_cold(i32 noundef 14, ptr noundef null) #10
  br i1 %97, label %100, label %103

98:                                               ; preds = %95
  %99 = call zeroext i1 @errstart(i32 noundef 14, ptr noundef null)
  br i1 %99, label %100, label %103

100:                                              ; preds = %98, %96
  %101 = getelementptr inbounds [1045 x i8], ptr %5, i64 0, i64 0
  %102 = call i32 (ptr, ...) @errmsg_internal(ptr noundef @.str.32, ptr noundef %101)
  call void @errfinish(ptr noundef @.str.2, i32 noundef 1986, ptr noundef @__func__.CheckPointSnapBuild)
  br label %103

103:                                              ; preds = %100, %98, %96
  br label %104

104:                                              ; preds = %103
  br label %105

105:                                              ; preds = %104
  %106 = getelementptr inbounds [1045 x i8], ptr %5, i64 0, i64 0
  %107 = call i32 @unlink(ptr noundef %106) #9
  %108 = icmp slt i32 %107, 0
  br i1 %108, label %109, label %122

109:                                              ; preds = %105
  br label %110

110:                                              ; preds = %109
  br i1 false, label %111, label %113

111:                                              ; preds = %110
  %112 = call zeroext i1 @errstart_cold(i32 noundef 15, ptr noundef null) #10
  br i1 %112, label %115, label %119

113:                                              ; preds = %110
  %114 = call zeroext i1 @errstart(i32 noundef 15, ptr noundef null)
  br i1 %114, label %115, label %119

115:                                              ; preds = %113, %111
  %116 = call i32 @errcode_for_file_access()
  %117 = getelementptr inbounds [1045 x i8], ptr %5, i64 0, i64 0
  %118 = call i32 (ptr, ...) @errmsg(ptr noundef @.str.33, ptr noundef %117)
  call void @errfinish(ptr noundef @.str.2, i32 noundef 1998, ptr noundef @__func__.CheckPointSnapBuild)
  br label %119

119:                                              ; preds = %115, %113, %111
  br label %120

120:                                              ; preds = %119
  br label %121

121:                                              ; preds = %120
  store i32 2, ptr %10, align 4
  br label %124, !llvm.loop !13

122:                                              ; preds = %105
  br label %123

123:                                              ; preds = %122, %91
  store i32 0, ptr %10, align 4
  br label %124

124:                                              ; preds = %123, %121, %80, %62, %36
  call void @llvm.lifetime.end.p0(i64 4, ptr %9) #9
  call void @llvm.lifetime.end.p0(i64 8, ptr %8) #9
  call void @llvm.lifetime.end.p0(i64 4, ptr %7) #9
  call void @llvm.lifetime.end.p0(i64 4, ptr %6) #9
  %125 = load i32, ptr %10, align 4
  switch i32 %125, label %130 [
    i32 0, label %126
    i32 2, label %20
  ]

126:                                              ; preds = %124
  br label %20, !llvm.loop !13

127:                                              ; preds = %20
  %128 = load ptr, ptr %3, align 8
  %129 = call i32 @FreeDir(ptr noundef %128)
  call void @llvm.lifetime.end.p0(i64 1045, ptr %5) #9
  call void @llvm.lifetime.end.p0(i64 8, ptr %4) #9
  call void @llvm.lifetime.end.p0(i64 8, ptr %3) #9
  call void @llvm.lifetime.end.p0(i64 8, ptr %2) #9
  call void @llvm.lifetime.end.p0(i64 8, ptr %1) #9
  ret void

130:                                              ; preds = %124
  unreachable
}