; Function Attrs: nounwind uwtable
define dso_local void @CheckPointSnapBuild() local_unnamed_addr #0 {
  %1 = alloca [1045 x i8], align 16
  %2 = alloca i32, align 4
  %3 = alloca i32, align 4
  call void @llvm.lifetime.start.p0(i64 1045, ptr nonnull %1) #14
  %4 = tail call i64 @GetRedoRecPtr() #14
  %5 = tail call i64 @ReplicationSlotsComputeLogicalRestartLSN() #14
  %6 = tail call ptr @AllocateDir(ptr noundef nonnull @.str.21) #14
  %7 = tail call ptr @ReadDir(ptr noundef %6, ptr noundef nonnull @.str.21) #14
  %.not25 = icmp eq ptr %7, null
  br i1 %.not25, label %._crit_edge, label %sub_0.lr.ph

sub_0.lr.ph:                                      ; preds = %0
  %spec.select = tail call i64 @llvm.umin.i64(i64 %4, i64 %5)
  %8 = add i64 %spec.select, -1
  br label %sub_0

sub_0:                                            ; preds = %sub_0.lr.ph, %52
  %9 = phi ptr [ %7, %sub_0.lr.ph ], [ %53, %52 ]
  call void @llvm.lifetime.start.p0(i64 4, ptr nonnull %2) #14
  call void @llvm.lifetime.start.p0(i64 4, ptr nonnull %3) #14
  %10 = getelementptr inbounds nuw i8, ptr %9, i64 19
  %11 = load i8, ptr %10, align 1
  %.not26 = icmp eq i8 %11, 46
  br i1 %.not26, label %.tail, label %.tail21.thread

.tail:                                            ; preds = %sub_0
  %12 = getelementptr inbounds nuw i8, ptr %9, i64 20
  %13 = load i8, ptr %12, align 1
  %14 = icmp eq i8 %13, 0
  br i1 %14, label %52, label %sub_123, !llvm.loop !13

sub_123:                                          ; preds = %.tail
  %15 = getelementptr inbounds nuw i8, ptr %9, i64 20
  %16 = load i8, ptr %15, align 1
  %.not28 = icmp eq i8 %16, 46
  br i1 %.not28, label %.tail21, label %.tail21.thread

.tail21:                                          ; preds = %sub_123
  %17 = getelementptr inbounds nuw i8, ptr %9, i64 21
  %18 = load i8, ptr %17, align 1
  %19 = icmp eq i8 %18, 0
  br i1 %19, label %52, label %.tail21.thread, !llvm.loop !13

.tail21.thread:                                   ; preds = %sub_0, %sub_123, %.tail21
  %20 = call i32 (ptr, i64, ptr, ...) @pg_snprintf(ptr noundef nonnull %1, i64 noundef 1045, ptr noundef nonnull @.str.28, ptr noundef nonnull @.str.21, ptr noundef nonnull %10) #14
  %21 = call i32 @get_dirent_type(ptr noundef nonnull %1, ptr noundef nonnull %9, i1 noundef zeroext false, i32 noundef 14) #14
  %22 = and i32 %21, -3
  %or.cond.not = icmp eq i32 %22, 0
  br i1 %or.cond.not, label %27, label %23

23:                                               ; preds = %.tail21.thread
  %24 = call zeroext i1 @errstart(i32 noundef 14, ptr noundef null) #14
  br i1 %24, label %25, label %52, !llvm.loop !13

25:                                               ; preds = %23
  %26 = call i32 (ptr, ...) @errmsg_internal(ptr noundef nonnull @.str.29, ptr noundef nonnull %1) #14
  br label %.sink.split, !llvm.loop !13

27:                                               ; preds = %.tail21.thread
  %28 = call i32 (ptr, ptr, ...) @__isoc99_sscanf(ptr noundef nonnull %10, ptr noundef nonnull @.str.30, ptr noundef nonnull %2, ptr noundef nonnull %3) #14
  %.not20 = icmp eq i32 %28, 2
  br i1 %.not20, label %33, label %29

29:                                               ; preds = %27
  %30 = call zeroext i1 @errstart(i32 noundef 15, ptr noundef null) #14
  br i1 %30, label %31, label %52, !llvm.loop !13

31:                                               ; preds = %29
  %32 = call i32 (ptr, ...) @errmsg(ptr noundef nonnull @.str.31, ptr noundef nonnull %1) #14
  br label %.sink.split, !llvm.loop !13

33:                                               ; preds = %27
  %34 = load i32, ptr %2, align 4
  %35 = zext i32 %34 to i64
  %36 = shl nuw i64 %35, 32
  %37 = load i32, ptr %3, align 4
  %38 = zext i32 %37 to i64
  %39 = or disjoint i64 %36, %38
  %or.cond3.not = icmp ult i64 %8, %39
  br i1 %or.cond3.not, label %52, label %40

40:                                               ; preds = %33
  %41 = call zeroext i1 @errstart(i32 noundef 14, ptr noundef null) #14
  br i1 %41, label %42, label %44

42:                                               ; preds = %40
  %43 = call i32 (ptr, ...) @errmsg_internal(ptr noundef nonnull @.str.32, ptr noundef nonnull %1) #14
  call void @errfinish(ptr noundef nonnull @.str.2, i32 noundef 1986, ptr noundef nonnull @__func__.CheckPointSnapBuild) #14
  br label %44

44:                                               ; preds = %42, %40
  %45 = call i32 @unlink(ptr noundef nonnull %1) #14
  %46 = icmp slt i32 %45, 0
  br i1 %46, label %47, label %52

47:                                               ; preds = %44
  %48 = call zeroext i1 @errstart(i32 noundef 15, ptr noundef null) #14
  br i1 %48, label %49, label %52, !llvm.loop !13

49:                                               ; preds = %47
  %50 = call i32 @errcode_for_file_access() #14
  %51 = call i32 (ptr, ...) @errmsg(ptr noundef nonnull @.str.33, ptr noundef nonnull %1) #14
  br label %.sink.split, !llvm.loop !13

.sink.split:                                      ; preds = %25, %31, %49
  %.sink = phi i32 [ 1998, %49 ], [ 1977, %31 ], [ 1961, %25 ]
  call void @errfinish(ptr noundef nonnull @.str.2, i32 noundef %.sink, ptr noundef nonnull @__func__.CheckPointSnapBuild) #14
  br label %52

52:                                               ; preds = %.sink.split, %33, %44, %47, %29, %23, %.tail, %.tail21
  call void @llvm.lifetime.end.p0(i64 4, ptr nonnull %3) #14
  call void @llvm.lifetime.end.p0(i64 4, ptr nonnull %2) #14
  %53 = call ptr @ReadDir(ptr noundef %6, ptr noundef nonnull @.str.21) #14
  %.not = icmp eq ptr %53, null
  br i1 %.not, label %._crit_edge, label %sub_0

._crit_edge:                                      ; preds = %52, %0
  %54 = call i32 @FreeDir(ptr noundef %6) #14
  call void @llvm.lifetime.end.p0(i64 1045, ptr nonnull %1) #14
  ret void
}